; Function Attrs: mustprogress uwtable
define hidden void @_ZN5zxing30AdaptiveThresholdMeanBinarizerC2ENS_3RefINS_15LuminanceSourceEEE(ptr noundef nonnull align 8 dereferenceable(121) %0, ptr noundef readonly captures(none) %1) unnamed_addr #0 align 2 personality ptr @__gxx_personality_v0 {
  %3 = alloca %"class.zxing::Ref", align 8
  %4 = load ptr, ptr %1, align 8, !tbaa !3
  %.not.i.i = icmp eq ptr %4, null
  br i1 %.not.i.i, label %_ZN5zxing3RefINS_15LuminanceSourceEEC2ERKS2_.exit, label %5

5:                                                ; preds = %2
  %6 = getelementptr inbounds nuw i8, ptr %4, i64 8
  %7 = load i32, ptr %6, align 8, !tbaa !9
  %8 = add i32 %7, 1
  store i32 %8, ptr %6, align 8, !tbaa !9
  br label %_ZN5zxing3RefINS_15LuminanceSourceEEC2ERKS2_.exit

_ZN5zxing3RefINS_15LuminanceSourceEEC2ERKS2_.exit: ; preds = %2, %5
  store ptr %4, ptr %3, align 8, !tbaa !3
  invoke void @_ZN5zxing24GlobalHistogramBinarizerC2ENS_3RefINS_15LuminanceSourceEEE(ptr noundef nonnull align 8 dereferenceable(121) %0, ptr noundef nonnull %3)
          to label %9 unwind label %20

9:                                                ; preds = %_ZN5zxing3RefINS_15LuminanceSourceEEC2ERKS2_.exit
  %10 = load ptr, ptr %3, align 8, !tbaa !3
  %.not.i = icmp eq ptr %10, null
  br i1 %.not.i, label %_ZN5zxing3RefINS_15LuminanceSourceEED2Ev.exit, label %11

11:                                               ; preds = %9
  %12 = getelementptr inbounds nuw i8, ptr %10, i64 8
  %13 = load i32, ptr %12, align 8, !tbaa !9
  %14 = add i32 %13, -1
  store i32 %14, ptr %12, align 8, !tbaa !9
  %15 = icmp eq i32 %14, 0
  br i1 %15, label %16, label %_ZN5zxing3RefINS_15LuminanceSourceEED2Ev.exit

16:                                               ; preds = %11
  store i32 -559026175, ptr %12, align 8, !tbaa !9
  %17 = load ptr, ptr %10, align 8, !tbaa !12
  %18 = getelementptr inbounds nuw i8, ptr %17, i64 8
  %19 = load ptr, ptr %18, align 8
  call void %19(ptr noundef nonnull align 8 dereferenceable(12) %10) #11
  br label %_ZN5zxing3RefINS_15LuminanceSourceEED2Ev.exit

_ZN5zxing3RefINS_15LuminanceSourceEED2Ev.exit:    ; preds = %9, %11, %16
  store ptr getelementptr inbounds nuw inrange(-16, 48) (i8, ptr @_ZTVN5zxing30AdaptiveThresholdMeanBinarizerE, i64 16), ptr %0, align 8, !tbaa !12
  ret void

20:                                               ; preds = %_ZN5zxing3RefINS_15LuminanceSourceEEC2ERKS2_.exit
  %21 = landingpad { ptr, i32 }
          cleanup
  %22 = load ptr, ptr %3, align 8, !tbaa !3
  %.not.i2 = icmp eq ptr %22, null
  br i1 %.not.i2, label %_ZN5zxing3RefINS_15LuminanceSourceEED2Ev.exit3, label %23

23:                                               ; preds = %20
  %24 = getelementptr inbounds nuw i8, ptr %22, i64 8
  %25 = load i32, ptr %24, align 8, !tbaa !9
  %26 = add i32 %25, -1
  store i32 %26, ptr %24, align 8, !tbaa !9
  %27 = icmp eq i32 %26, 0
  br i1 %27, label %28, label %_ZN5zxing3RefINS_15LuminanceSourceEED2Ev.exit3

28:                                               ; preds = %23
  store i32 -559026175, ptr %24, align 8, !tbaa !9
  %29 = load ptr, ptr %22, align 8, !tbaa !12
  %30 = getelementptr inbounds nuw i8, ptr %29, i64 8
  %31 = load ptr, ptr %30, align 8
  call void %31(ptr noundef nonnull align 8 dereferenceable(12) %22) #11
  br label %_ZN5zxing3RefINS_15LuminanceSourceEED2Ev.exit3

_ZN5zxing3RefINS_15LuminanceSourceEED2Ev.exit3:   ; preds = %20, %23, %28
  resume { ptr, i32 } %21
}